target datalayout = "e-m:e-p270:32:32-p271:32:32-p272:64:64-i64:64-i128:128-f80:128-n8:16:32:64-S128"
target triple = "x86_64-pc-linux-gnu"

%class.ttyLocker = type { i64 }

@tty = external global ptr, align 8
@xtty = external global ptr, align 8
@_ZN14Deoptimization17_trap_action_nameE = hidden global [5 x ptr] [ptr @.str.51, ptr @.str.82, ptr @.str.83, ptr @.str.84, ptr @.str.85], align 16
@.str.86 = private unnamed_addr constant [5 x i8] c"many\00", align 1
@_ZZN14Deoptimization16trap_reason_nameEiE3buf = internal global [20 x i8] zeroinitializer, align 16
@.str.87 = private unnamed_addr constant [9 x i8] c"reason%d\00", align 1
@_ZZN14Deoptimization16trap_action_nameEiE3buf = internal global [20 x i8] zeroinitializer, align 16
@.str.88 = private unnamed_addr constant [9 x i8] c"action%d\00", align 1
@_ZN14Deoptimization20_deoptimization_histE = hidden global [31 x [6 x [1 x i32]]] zeroinitializer, align 16
@.str.91 = private unnamed_addr constant [33 x i8] c"statistics type='deoptimization'\00", align 1
@.str.92 = private unnamed_addr constant [31 x i8] c"Deoptimization traps recorded:\00", align 1
@.str.93 = private unnamed_addr constant [19 x i8] c"  %4d (%4.1f%%) %s\00", align 1
@.str.94 = private unnamed_addr constant [6 x i8] c"total\00", align 1
@.str.95 = private unnamed_addr constant [9 x i8] c"%s/%s/%s\00", align 1
@.str.96 = private unnamed_addr constant [6 x i8] c"other\00", align 1
@.str.97 = private unnamed_addr constant [20 x i8] c"  %40s: %u (%.1f%%)\00", align 1
@.str.98 = private unnamed_addr constant [12 x i8] c"unaccounted\00", align 1
@.str.99 = private unnamed_addr constant [11 x i8] c"statistics\00", align 1
@_ZN9Bytecodes5_nameE = external constant [239 x ptr], align 16
@_ZN9Bytecodes6_flagsE = external global [512 x i16], align 16

; Function Attrs: mustprogress nounwind uwtable
define linkonce_odr hidden void @_ZN9Bytecodes5checkENS_4CodeE(i32 noundef %0) #1 comdat align 2 {
  %2 = alloca i32, align 4
  store i32 %0, ptr %2, align 4
  ret void
}

; Function Attrs: mustprogress nounwind uwtable
define linkonce_odr hidden noundef i32 @_ZN9Bytecodes5flagsEib(i32 noundef %0, i1 noundef zeroext %1) #1 comdat align 2 {
  %3 = alloca i32, align 4
  %4 = alloca i8, align 1
  store i32 %0, ptr %3, align 4
  %5 = zext i1 %1 to i8
  store i8 %5, ptr %4, align 1
  %6 = load i32, ptr %3, align 4
  %7 = load i8, ptr %4, align 1
  %8 = trunc i8 %7 to i1
  %9 = select i1 %8, i32 256, i32 0
  %10 = add nsw i32 %6, %9
  %11 = sext i32 %10 to i64
  %12 = getelementptr inbounds [512 x i16], ptr @_ZN9Bytecodes6_flagsE, i64 0, i64 %11
  %13 = load i16, ptr %12, align 2
  %14 = zext i16 %13 to i32
  ret i32 %14
}

; Function Attrs: mustprogress nounwind uwtable
define linkonce_odr hidden noundef zeroext i1 @_ZN9Bytecodes8is_validEi(i32 noundef %0) #1 comdat align 2 {
  %2 = alloca i32, align 4
  store i32 %0, ptr %2, align 4
  %3 = load i32, ptr %2, align 4
  %4 = icmp sle i32 0, %3
  br i1 %4, label %5, label %8

5:                                                ; preds = %1
  %6 = load i32, ptr %2, align 4
  %7 = icmp slt i32 %6, 239
  br label %8

8:                                                ; preds = %5, %1
  %9 = phi i1 [ false, %1 ], [ %7, %5 ]
  ret i1 %9
}

; Function Attrs: mustprogress nounwind uwtable
define linkonce_odr hidden void @_ZN9ttyLockerD2Ev(ptr noundef nonnull align 8 dereferenceable(8) %0) unnamed_addr #1 comdat align 2 {
  %2 = alloca ptr, align 8
  store ptr %0, ptr %2, align 8
  %3 = load ptr, ptr %2, align 8
  %4 = getelementptr inbounds %class.ttyLocker, ptr %3, i32 0, i32 0
  %5 = load i64, ptr %4, align 8
  call void @_ZN9ttyLocker11release_ttyEl(i64 noundef %5)
  ret void
}

; Function Attrs: mustprogress nounwind uwtable
define linkonce_odr hidden noundef ptr @_ZN9Bytecodes4nameENS_4CodeE(i32 noundef %0) #1 comdat align 2 {
  %2 = alloca i32, align 4
  store i32 %0, ptr %2, align 4
  %3 = load i32, ptr %2, align 4
  call void @_ZN9Bytecodes5checkENS_4CodeE(i32 noundef %3)
  %4 = load i32, ptr %2, align 4
  %5 = sext i32 %4 to i64
  %6 = getelementptr inbounds [239 x ptr], ptr @_ZN9Bytecodes5_nameE, i64 0, i64 %5
  %7 = load ptr, ptr %6, align 8
  ret ptr %7
}

; Function Attrs: mustprogress nounwind uwtable
define linkonce_odr hidden noundef zeroext i1 @_ZN9Bytecodes10is_definedEi(i32 noundef %0) #1 comdat align 2 {
  %2 = alloca i32, align 4
  store i32 %0, ptr %2, align 4
  %3 = load i32, ptr %2, align 4
  %4 = call noundef zeroext i1 @_ZN9Bytecodes8is_validEi(i32 noundef %3)
  br i1 %4, label %5, label %9

5:                                                ; preds = %1
  %6 = load i32, ptr %2, align 4
  %7 = call noundef i32 @_ZN9Bytecodes5flagsEib(i32 noundef %6, i1 noundef zeroext false)
  %8 = icmp ne i32 %7, 0
  br label %9

9:                                                ; preds = %5, %1
  %10 = phi i1 [ false, %1 ], [ %8, %5 ]
  ret i1 %10
}

; Function Attrs: mustprogress nounwind uwtable
define hidden noundef ptr @_ZN14Deoptimization16trap_action_nameEi(i32 noundef %0) #1 align 2 {
  %2 = alloca ptr, align 8
  %3 = alloca i32, align 4
  store i32 %0, ptr %3, align 4
  %4 = load i32, ptr %3, align 4
  %5 = icmp ult i32 %4, 5
  br i1 %5, label %6, label %11

6:                                                ; preds = %1
  %7 = load i32, ptr %3, align 4
  %8 = sext i32 %7 to i64
  %9 = getelementptr inbounds [5 x ptr], ptr @_ZN14Deoptimization17_trap_action_nameE, i64 0, i64 %8
  %10 = load ptr, ptr %9, align 8
  store ptr %10, ptr %2, align 8
  br label %14

11:                                               ; preds = %1
  %12 = load i32, ptr %3, align 4
  %13 = call noundef i32 (ptr, i64, ptr, ...) @_ZN2os16snprintf_checkedEPcmPKcz(ptr noundef @_ZZN14Deoptimization16trap_action_nameEiE3buf, i64 noundef 20, ptr noundef @.str.88, i32 noundef %12)
  store ptr @_ZZN14Deoptimization16trap_action_nameEiE3buf, ptr %2, align 8
  br label %14

14:                                               ; preds = %11, %6
  %15 = load ptr, ptr %2, align 8
  ret ptr %15
}

; Function Attrs: mustprogress nounwind uwtable
define hidden noundef ptr @_ZN14Deoptimization16trap_reason_nameEi(i32 noundef %0) #1 align 2 {
  %2 = alloca ptr, align 8
  %3 = alloca i32, align 4
  store i32 %0, ptr %3, align 4
  %4 = load i32, ptr %3, align 4
  %5 = icmp eq i32 %4, -1
  br i1 %5, label %6, label %7

6:                                                ; preds = %1
  store ptr @.str.86, ptr %2, align 8
  br label %18

7:                                                ; preds = %1
  %8 = load i32, ptr %3, align 4
  %9 = icmp ult i32 %8, 31
  br i1 %9, label %10, label %15

10:                                               ; preds = %7
  %11 = load i32, ptr %3, align 4
  %12 = sext i32 %11 to i64
  %13 = getelementptr inbounds [31 x ptr], ptr @_ZN14Deoptimization17_trap_reason_nameE, i64 0, i64 %12
  %14 = load ptr, ptr %13, align 8
  store ptr %14, ptr %2, align 8
  br label %18

15:                                               ; preds = %7
  %16 = load i32, ptr %3, align 4
  %17 = call noundef i32 (ptr, i64, ptr, ...) @_ZN2os16snprintf_checkedEPcmPKcz(ptr noundef @_ZZN14Deoptimization16trap_reason_nameEiE3buf, i64 noundef 20, ptr noundef @.str.87, i32 noundef %16)
  store ptr @_ZZN14Deoptimization16trap_reason_nameEiE3buf, ptr %2, align 8
  br label %18

18:                                               ; preds = %15, %10, %6
  %19 = load ptr, ptr %2, align 8
  ret ptr %19
}

; Function Attrs: mustprogress nounwind uwtable
define linkonce_odr hidden void @_ZN9ttyLockerC2Ev(ptr noundef nonnull align 8 dereferenceable(8) %0) unnamed_addr #1 comdat align 2 {
  %2 = alloca ptr, align 8
  store ptr %0, ptr %2, align 8
  %3 = load ptr, ptr %2, align 8
  %4 = call noundef i64 @_ZN9ttyLocker8hold_ttyEv()
  %5 = getelementptr inbounds %class.ttyLocker, ptr %3, i32 0, i32 0
  store i64 %4, ptr %5, align 8
  ret void
}

; Function Attrs: mustprogress nounwind uwtable
define hidden noundef i32 @_ZN14Deoptimization26total_deoptimization_countEv() #1 align 2 {
  %1 = load i32, ptr @_ZN14Deoptimization20_deoptimization_histE, align 16
  ret i32 %1
}

; Function Attrs: mustprogress nounwind uwtable
define hidden void @_ZN14Deoptimization16print_statisticsEv() #1 align 2 {
  %1 = alloca i32, align 4
  %2 = alloca i32, align 4
  %3 = alloca %class.ttyLocker, align 8
  %4 = alloca i32, align 4
  %5 = alloca i32, align 4
  %6 = alloca ptr, align 8
  %7 = alloca i32, align 4
  %8 = alloca i32, align 4
  %9 = alloca [1024 x i8], align 16
  %10 = alloca i32, align 4
  %11 = alloca i32, align 4
  %12 = call noundef i32 @_ZN14Deoptimization26total_deoptimization_countEv()
  store i32 %12, ptr %1, align 4
  %13 = load i32, ptr %1, align 4
  store i32 %13, ptr %2, align 4
  %14 = load i32, ptr %1, align 4
  %15 = icmp ne i32 %14, 0
  br i1 %15, label %16, label %126

16:                                               ; preds = %0
  call void @_ZN9ttyLockerC2Ev(ptr noundef nonnull align 8 dereferenceable(8) %3)
  %17 = load ptr, ptr @xtty, align 8
  %18 = icmp ne ptr %17, null
  br i1 %18, label %19, label %21

19:                                               ; preds = %16
  %20 = load ptr, ptr @xtty, align 8
  call void (ptr, ptr, ...) @_ZN9xmlStream4headEPKcz(ptr noundef nonnull align 8 dereferenceable(152) %20, ptr noundef @.str.91)
  br label %21

21:                                               ; preds = %19, %16
  %22 = load ptr, ptr @tty, align 8
  call void (ptr, ptr, ...) @_ZN12outputStream8print_crEPKcz(ptr noundef nonnull align 8 dereferenceable(56) %22, ptr noundef @.str.92)
  %23 = load ptr, ptr @tty, align 8
  %24 = load i32, ptr %1, align 4
  %25 = load i32, ptr %1, align 4
  %26 = uitofp i32 %25 to double
  %27 = fmul double %26, 1.000000e+02
  %28 = load i32, ptr %1, align 4
  %29 = uitofp i32 %28 to double
  %30 = fdiv double %27, %29
  call void (ptr, ptr, ...) @_ZN12outputStream8print_crEPKcz(ptr noundef nonnull align 8 dereferenceable(56) %23, ptr noundef @.str.93, i32 noundef %24, double noundef %30, ptr noundef @.str.94)
  store i32 0, ptr %4, align 4
  br label %31

31:                                               ; preds = %105, %21
  %32 = load i32, ptr %4, align 4
  %33 = icmp slt i32 %32, 31
  br i1 %33, label %34, label %108

34:                                               ; preds = %31
  store i32 0, ptr %5, align 4
  br label %35

35:                                               ; preds = %101, %34
  %36 = load i32, ptr %5, align 4
  %37 = icmp slt i32 %36, 5
  br i1 %37, label %38, label %104

38:                                               ; preds = %35
  %39 = load i32, ptr %4, align 4
  %40 = sext i32 %39 to i64
  %41 = getelementptr inbounds [31 x [6 x [1 x i32]]], ptr @_ZN14Deoptimization20_deoptimization_histE, i64 0, i64 %40
  %42 = load i32, ptr %5, align 4
  %43 = add nsw i32 1, %42
  %44 = sext i32 %43 to i64
  %45 = getelementptr inbounds [6 x [1 x i32]], ptr %41, i64 0, i64 %44
  %46 = getelementptr inbounds [1 x i32], ptr %45, i64 0, i64 0
  store ptr %46, ptr %6, align 8
  store i32 0, ptr %7, align 4
  br label %47

47:                                               ; preds = %97, %38
  %48 = load i32, ptr %7, align 4
  %49 = icmp slt i32 %48, 1
  br i1 %49, label %50, label %100

50:                                               ; preds = %47
  %51 = load ptr, ptr %6, align 8
  %52 = load i32, ptr %7, align 4
  %53 = sext i32 %52 to i64
  %54 = getelementptr inbounds i32, ptr %51, i64 %53
  %55 = load i32, ptr %54, align 4
  store i32 %55, ptr %8, align 4
  %56 = load i32, ptr %8, align 4
  %57 = icmp ne i32 %56, 0
  br i1 %57, label %58, label %96

58:                                               ; preds = %50
  %59 = load i32, ptr %8, align 4
  %60 = and i32 %59, 255
  store i32 %60, ptr %10, align 4
  %61 = load i32, ptr %7, align 4
  %62 = icmp eq i32 %61, 1
  br i1 %62, label %63, label %67

63:                                               ; preds = %58
  %64 = load i32, ptr %10, align 4
  %65 = icmp eq i32 %64, 0
  br i1 %65, label %66, label %67

66:                                               ; preds = %63
  store i32 -1, ptr %10, align 4
  br label %67

67:                                               ; preds = %66, %63, %58
  %68 = getelementptr inbounds [1024 x i8], ptr %9, i64 0, i64 0
  %69 = load i32, ptr %4, align 4
  %70 = call noundef ptr @_ZN14Deoptimization16trap_reason_nameEi(i32 noundef %69)
  %71 = load i32, ptr %5, align 4
  %72 = call noundef ptr @_ZN14Deoptimization16trap_action_nameEi(i32 noundef %71)
  %73 = load i32, ptr %10, align 4
  %74 = call noundef zeroext i1 @_ZN9Bytecodes10is_definedEi(i32 noundef %73)
  br i1 %74, label %75, label %78

75:                                               ; preds = %67
  %76 = load i32, ptr %10, align 4
  %77 = call noundef ptr @_ZN9Bytecodes4nameENS_4CodeE(i32 noundef %76)
  br label %79

78:                                               ; preds = %67
  br label %79

79:                                               ; preds = %78, %75
  %80 = phi ptr [ %77, %75 ], [ @.str.96, %78 ]
  %81 = call noundef i32 (ptr, i64, ptr, ...) @_ZN2os16snprintf_checkedEPcmPKcz(ptr noundef %68, i64 noundef 1024, ptr noundef @.str.95, ptr noundef %70, ptr noundef %72, ptr noundef %80)
  %82 = load i32, ptr %8, align 4
  %83 = lshr i32 %82, 8
  store i32 %83, ptr %11, align 4
  %84 = load ptr, ptr @tty, align 8
  %85 = getelementptr inbounds [1024 x i8], ptr %9, i64 0, i64 0
  %86 = load i32, ptr %11, align 4
  %87 = load i32, ptr %11, align 4
  %88 = uitofp i32 %87 to double
  %89 = fmul double %88, 1.000000e+02
  %90 = load i32, ptr %1, align 4
  %91 = uitofp i32 %90 to double
  %92 = fdiv double %89, %91
  call void (ptr, ptr, ...) @_ZN12outputStream8print_crEPKcz(ptr noundef nonnull align 8 dereferenceable(56) %84, ptr noundef @.str.97, ptr noundef %85, i32 noundef %86, double noundef %92)
  %93 = load i32, ptr %11, align 4
  %94 = load i32, ptr %2, align 4
  %95 = sub i32 %94, %93
  store i32 %95, ptr %2, align 4
  br label %96

96:                                               ; preds = %79, %50
  br label %97

97:                                               ; preds = %96
  %98 = load i32, ptr %7, align 4
  %99 = add nsw i32 %98, 1
  store i32 %99, ptr %7, align 4
  br label %47, !llvm.loop !32

100:                                              ; preds = %47
  br label %101

101:                                              ; preds = %100
  %102 = load i32, ptr %5, align 4
  %103 = add nsw i32 %102, 1
  store i32 %103, ptr %5, align 4
  br label %35, !llvm.loop !33

104:                                              ; preds = %35
  br label %105

105:                                              ; preds = %104
  %106 = load i32, ptr %4, align 4
  %107 = add nsw i32 %106, 1
  store i32 %107, ptr %4, align 4
  br label %31, !llvm.loop !34

108:                                              ; preds = %31
  %109 = load i32, ptr %2, align 4
  %110 = icmp ne i32 %109, 0
  br i1 %110, label %111, label %120

111:                                              ; preds = %108
  %112 = load ptr, ptr @tty, align 8
  %113 = load i32, ptr %2, align 4
  %114 = load i32, ptr %2, align 4
  %115 = uitofp i32 %114 to double
  %116 = fmul double %115, 1.000000e+02
  %117 = load i32, ptr %1, align 4
  %118 = uitofp i32 %117 to double
  %119 = fdiv double %116, %118
  call void (ptr, ptr, ...) @_ZN12outputStream8print_crEPKcz(ptr noundef nonnull align 8 dereferenceable(56) %112, ptr noundef @.str.93, i32 noundef %113, double noundef %119, ptr noundef @.str.98)
  br label %120

120:                                              ; preds = %111, %108
  %121 = load ptr, ptr @xtty, align 8
  %122 = icmp ne ptr %121, null
  br i1 %122, label %123, label %125

123:                                              ; preds = %120
  %124 = load ptr, ptr @xtty, align 8
  call void @_ZN9xmlStream4tailEPKc(ptr noundef nonnull align 8 dereferenceable(152) %124, ptr noundef @.str.99)
  br label %125

125:                                              ; preds = %123, %120
  call void @_ZN9ttyLockerD2Ev(ptr noundef nonnull align 8 dereferenceable(8) %3) #11
  br label %126

126:                                              ; preds = %125, %0
  ret void
}