; Function Attrs: mustprogress nounwind uwtable
define hidden void @_ZN14Deoptimization16print_statisticsEv() local_unnamed_addr #0 align 2 {
  %1 = alloca [1024 x i8], align 16
  %2 = load i32, ptr @_ZN14Deoptimization20_deoptimization_histE, align 16
  %.not = icmp eq i32 %2, 0
  br i1 %.not, label %48, label %3

3:                                                ; preds = %0
  %4 = tail call noundef i64 @_ZN9ttyLocker8hold_ttyEv() #22
  %5 = load ptr, ptr @xtty, align 8
  %.not40 = icmp eq ptr %5, null
  br i1 %.not40, label %7, label %6

6:                                                ; preds = %3
  tail call void (ptr, ptr, ...) @_ZN9xmlStream4headEPKcz(ptr noundef nonnull align 8 dereferenceable(152) %5, ptr noundef nonnull @.str.91) #22
  br label %7

7:                                                ; preds = %6, %3
  %8 = load ptr, ptr @tty, align 8
  tail call void (ptr, ptr, ...) @_ZN12outputStream8print_crEPKcz(ptr noundef nonnull align 8 dereferenceable(56) %8, ptr noundef nonnull @.str.92) #22
  %9 = load ptr, ptr @tty, align 8
  %10 = uitofp i32 %2 to double
  %11 = fmul double %10, 1.000000e+02
  %12 = fdiv double %11, %10
  tail call void (ptr, ptr, ...) @_ZN12outputStream8print_crEPKcz(ptr noundef nonnull align 8 dereferenceable(56) %9, ptr noundef nonnull @.str.93, i32 noundef %2, double noundef %12, ptr noundef nonnull @.str.94) #22
  br label %.preheader

.preheader:                                       ; preds = %7, %37
  %indvars.iv52 = phi i64 [ 0, %7 ], [ %indvars.iv.next53, %37 ]
  %.050 = phi i32 [ %2, %7 ], [ %.us-phi, %37 ]
  %13 = getelementptr inbounds [31 x ptr], ptr @_ZN14Deoptimization17_trap_reason_nameE, i64 0, i64 %indvars.iv52
  br label %14

.loopexit:                                        ; preds = %_ZN9Bytecodes10is_definedEi.exit.thread, %14
  %.us-phi = phi i32 [ %.148, %14 ], [ %36, %_ZN9Bytecodes10is_definedEi.exit.thread ]
  %exitcond.not = icmp eq i64 %indvars.iv.next, 5
  br i1 %exitcond.not, label %37, label %14, !llvm.loop !83

14:                                               ; preds = %.preheader, %.loopexit
  %indvars.iv = phi i64 [ 0, %.preheader ], [ %indvars.iv.next, %.loopexit ]
  %.148 = phi i32 [ %.050, %.preheader ], [ %.us-phi, %.loopexit ]
  %indvars.iv.next = add nuw nsw i64 %indvars.iv, 1
  %15 = getelementptr inbounds [31 x [6 x [1 x i32]]], ptr @_ZN14Deoptimization20_deoptimization_histE, i64 0, i64 %indvars.iv52, i64 %indvars.iv.next
  %16 = load i32, ptr %15, align 4
  %17 = icmp eq i32 %16, 0
  br i1 %17, label %.loopexit, label %_ZN14Deoptimization16trap_action_nameEi.exit

_ZN14Deoptimization16trap_action_nameEi.exit:     ; preds = %14
  %18 = getelementptr inbounds [5 x ptr], ptr @_ZN14Deoptimization17_trap_action_nameE, i64 0, i64 %indvars.iv
  %19 = and i32 %16, 255
  %20 = load ptr, ptr %13, align 8
  %21 = load ptr, ptr %18, align 8
  %22 = icmp ult i32 %19, 239
  br i1 %22, label %_ZN9Bytecodes10is_definedEi.exit, label %_ZN9Bytecodes10is_definedEi.exit.thread

_ZN9Bytecodes10is_definedEi.exit:                 ; preds = %_ZN14Deoptimization16trap_action_nameEi.exit
  %23 = zext nneg i32 %19 to i64
  %24 = getelementptr inbounds [512 x i16], ptr @_ZN9Bytecodes6_flagsE, i64 0, i64 %23
  %25 = load i16, ptr %24, align 2
  %.not45 = icmp eq i16 %25, 0
  br i1 %.not45, label %_ZN9Bytecodes10is_definedEi.exit.thread, label %26

26:                                               ; preds = %_ZN9Bytecodes10is_definedEi.exit
  %27 = getelementptr inbounds [239 x ptr], ptr @_ZN9Bytecodes5_nameE, i64 0, i64 %23
  %28 = load ptr, ptr %27, align 8
  br label %_ZN9Bytecodes10is_definedEi.exit.thread

_ZN9Bytecodes10is_definedEi.exit.thread:          ; preds = %_ZN14Deoptimization16trap_action_nameEi.exit, %_ZN9Bytecodes10is_definedEi.exit, %26
  %29 = phi ptr [ %28, %26 ], [ @.str.96, %_ZN9Bytecodes10is_definedEi.exit ], [ @.str.96, %_ZN14Deoptimization16trap_action_nameEi.exit ]
  %30 = call noundef i32 (ptr, i64, ptr, ...) @_ZN2os16snprintf_checkedEPcmPKcz(ptr noundef nonnull %1, i64 noundef 1024, ptr noundef nonnull @.str.95, ptr noundef %20, ptr noundef %21, ptr noundef %29) #22
  %31 = lshr i32 %16, 8
  %32 = load ptr, ptr @tty, align 8
  %33 = mul nuw nsw i32 %31, 100
  %34 = uitofp nneg i32 %33 to double
  %35 = fdiv double %34, %10
  call void (ptr, ptr, ...) @_ZN12outputStream8print_crEPKcz(ptr noundef nonnull align 8 dereferenceable(56) %32, ptr noundef nonnull @.str.97, ptr noundef nonnull %1, i32 noundef %31, double noundef %35) #22
  %36 = sub i32 %.148, %31
  br label %.loopexit

37:                                               ; preds = %.loopexit
  %indvars.iv.next53 = add nuw nsw i64 %indvars.iv52, 1
  %exitcond55.not = icmp eq i64 %indvars.iv.next53, 31
  br i1 %exitcond55.not, label %38, label %.preheader, !llvm.loop !84

38:                                               ; preds = %37
  %.not41 = icmp eq i32 %.us-phi, 0
  br i1 %.not41, label %44, label %39

39:                                               ; preds = %38
  %40 = load ptr, ptr @tty, align 8
  %41 = uitofp i32 %.us-phi to double
  %42 = fmul double %41, 1.000000e+02
  %43 = fdiv double %42, %10
  call void (ptr, ptr, ...) @_ZN12outputStream8print_crEPKcz(ptr noundef nonnull align 8 dereferenceable(56) %40, ptr noundef nonnull @.str.93, i32 noundef %.us-phi, double noundef %43, ptr noundef nonnull @.str.98) #22
  br label %44

44:                                               ; preds = %39, %38
  %45 = load ptr, ptr @xtty, align 8
  %.not42 = icmp eq ptr %45, null
  br i1 %.not42, label %47, label %46

46:                                               ; preds = %44
  call void @_ZN9xmlStream4tailEPKc(ptr noundef nonnull align 8 dereferenceable(152) %45, ptr noundef nonnull @.str.99) #22
  br label %47

47:                                               ; preds = %46, %44
  call void @_ZN9ttyLocker11release_ttyEl(i64 noundef %4) #22
  br label %48

48:                                               ; preds = %47, %0
  ret void
}